target datalayout = "e-m:e-p270:32:32-p271:32:32-p272:64:64-i64:64-i128:128-f80:128-n8:16:32:64-S128"
target triple = "x86_64-pc-linux-gnu"

; Function Attrs: nounwind uwtable
define hidden void @python_hashlib_Hacl_Hash_Blake2s_update_last(i32 noundef %0, ptr noundef %1, ptr noundef %2, i1 noundef zeroext %3, i64 noundef %4, i32 noundef %5, ptr noundef %6) #0 {
  %8 = alloca i32, align 4
  %9 = alloca ptr, align 8
  %10 = alloca ptr, align 8
  %11 = alloca i8, align 1
  %12 = alloca i64, align 8
  %13 = alloca i32, align 4
  %14 = alloca ptr, align 8
  %15 = alloca [64 x i8], align 16
  %16 = alloca ptr, align 8
  %17 = alloca i64, align 8
  store i32 %0, ptr %8, align 4, !tbaa !8
  store ptr %1, ptr %9, align 8, !tbaa !3
  store ptr %2, ptr %10, align 8, !tbaa !3
  %18 = zext i1 %3 to i8
  store i8 %18, ptr %11, align 1, !tbaa !27
  store i64 %4, ptr %12, align 8, !tbaa !24
  store i32 %5, ptr %13, align 4, !tbaa !8
  store ptr %6, ptr %14, align 8, !tbaa !23
  call void @llvm.lifetime.start.p0(i64 64, ptr %15) #9
  call void @llvm.memset.p0.i64(ptr align 16 %15, i8 0, i64 64, i1 false)
  call void @llvm.lifetime.start.p0(i64 8, ptr %16) #9
  %19 = load ptr, ptr %14, align 8, !tbaa !23
  %20 = load i32, ptr %8, align 4, !tbaa !8
  %21 = zext i32 %20 to i64
  %22 = getelementptr i8, ptr %19, i64 %21
  %23 = load i32, ptr %13, align 4, !tbaa !8
  %24 = zext i32 %23 to i64
  %25 = sub i64 0, %24
  %26 = getelementptr i8, ptr %22, i64 %25
  store ptr %26, ptr %16, align 8, !tbaa !23
  %27 = getelementptr inbounds [64 x i8], ptr %15, i64 0, i64 0
  %28 = load ptr, ptr %16, align 8, !tbaa !23
  %29 = load i32, ptr %13, align 4, !tbaa !8
  %30 = zext i32 %29 to i64
  %31 = mul i64 %30, 1
  call void @llvm.memcpy.p0.p0.i64(ptr align 16 %27, ptr align 1 %28, i64 %31, i1 false)
  call void @llvm.lifetime.start.p0(i64 8, ptr %17) #9
  %32 = load i64, ptr %12, align 8, !tbaa !24
  %33 = load i32, ptr %8, align 4, !tbaa !8
  %34 = zext i32 %33 to i64
  %35 = add i64 %32, %34
  store i64 %35, ptr %17, align 8, !tbaa !24
  %36 = load ptr, ptr %9, align 8, !tbaa !3
  %37 = load ptr, ptr %10, align 8, !tbaa !3
  %38 = load i8, ptr %11, align 1, !tbaa !27, !range !29, !noundef !30
  %39 = trunc i8 %38 to i1
  %40 = load i64, ptr %17, align 8, !tbaa !24
  %41 = getelementptr inbounds [64 x i8], ptr %15, i64 0, i64 0
  call void @update_block(ptr noundef %36, ptr noundef %37, i1 noundef zeroext true, i1 noundef zeroext %39, i64 noundef %40, ptr noundef %41)
  %42 = getelementptr inbounds [64 x i8], ptr %15, i64 0, i64 0
  call void @Lib_Memzero0_memzero0(ptr noundef %42, i64 noundef 64)
  call void @llvm.lifetime.end.p0(i64 8, ptr %17) #9
  call void @llvm.lifetime.end.p0(i64 8, ptr %16) #9
  call void @llvm.lifetime.end.p0(i64 64, ptr %15) #9
  ret void
}

; Function Attrs: nounwind uwtable
define hidden void @python_hashlib_Hacl_Hash_Blake2s_update_multi(i32 noundef %0, ptr noundef %1, ptr noundef %2, i64 noundef %3, ptr noundef %4, i32 noundef %5) #0 {
  %7 = alloca i32, align 4
  %8 = alloca ptr, align 8
  %9 = alloca ptr, align 8
  %10 = alloca i64, align 8
  %11 = alloca ptr, align 8
  %12 = alloca i32, align 4
  %13 = alloca i32, align 4
  %14 = alloca i64, align 8
  %15 = alloca ptr, align 8
  store i32 %0, ptr %7, align 4, !tbaa !8
  store ptr %1, ptr %8, align 8, !tbaa !3
  store ptr %2, ptr %9, align 8, !tbaa !3
  store i64 %3, ptr %10, align 8, !tbaa !24
  store ptr %4, ptr %11, align 8, !tbaa !23
  store i32 %5, ptr %12, align 4, !tbaa !8
  call void @llvm.lifetime.start.p0(i64 4, ptr %13) #9
  store i32 0, ptr %13, align 4, !tbaa !8
  br label %16

16:                                               ; preds = %37, %6
  %17 = load i32, ptr %13, align 4, !tbaa !8
  %18 = load i32, ptr %12, align 4, !tbaa !8
  %19 = icmp ult i32 %17, %18
  br i1 %19, label %21, label %20

20:                                               ; preds = %16
  call void @llvm.lifetime.end.p0(i64 4, ptr %13) #9
  br label %40

21:                                               ; preds = %16
  call void @llvm.lifetime.start.p0(i64 8, ptr %14) #9
  %22 = load i64, ptr %10, align 8, !tbaa !24
  %23 = load i32, ptr %13, align 4, !tbaa !8
  %24 = add i32 %23, 1
  %25 = mul i32 %24, 64
  %26 = zext i32 %25 to i64
  %27 = add i64 %22, %26
  store i64 %27, ptr %14, align 8, !tbaa !24
  call void @llvm.lifetime.start.p0(i64 8, ptr %15) #9
  %28 = load ptr, ptr %11, align 8, !tbaa !23
  %29 = load i32, ptr %13, align 4, !tbaa !8
  %30 = mul i32 %29, 64
  %31 = zext i32 %30 to i64
  %32 = getelementptr i8, ptr %28, i64 %31
  store ptr %32, ptr %15, align 8, !tbaa !23
  %33 = load ptr, ptr %8, align 8, !tbaa !3
  %34 = load ptr, ptr %9, align 8, !tbaa !3
  %35 = load i64, ptr %14, align 8, !tbaa !24
  %36 = load ptr, ptr %15, align 8, !tbaa !23
  call void @update_block(ptr noundef %33, ptr noundef %34, i1 noundef zeroext false, i1 noundef zeroext false, i64 noundef %35, ptr noundef %36)
  call void @llvm.lifetime.end.p0(i64 8, ptr %15) #9
  call void @llvm.lifetime.end.p0(i64 8, ptr %14) #9
  br label %37

37:                                               ; preds = %21
  %38 = load i32, ptr %13, align 4, !tbaa !8
  %39 = add i32 %38, 1
  store i32 %39, ptr %13, align 4, !tbaa !8
  br label %16, !llvm.loop !25

40:                                               ; preds = %20
  ret void
}

; Function Attrs: nounwind uwtable
define internal void @update_blocks(i32 noundef %0, ptr noundef %1, ptr noundef %2, i64 noundef %3, ptr noundef %4) #0 {
  %6 = alloca i32, align 4
  %7 = alloca ptr, align 8
  %8 = alloca ptr, align 8
  %9 = alloca i64, align 8
  %10 = alloca ptr, align 8
  %11 = alloca i32, align 4
  %12 = alloca i32, align 4
  %13 = alloca i32, align 4
  %14 = alloca i32, align 4
  store i32 %0, ptr %6, align 4, !tbaa !8
  store ptr %1, ptr %7, align 8, !tbaa !3
  store ptr %2, ptr %8, align 8, !tbaa !3
  store i64 %3, ptr %9, align 8, !tbaa !24
  store ptr %4, ptr %10, align 8, !tbaa !23
  call void @llvm.lifetime.start.p0(i64 4, ptr %11) #9
  %15 = load i32, ptr %6, align 4, !tbaa !8
  %16 = udiv i32 %15, 64
  store i32 %16, ptr %11, align 4, !tbaa !8
  call void @llvm.lifetime.start.p0(i64 4, ptr %12) #9
  %17 = load i32, ptr %6, align 4, !tbaa !8
  %18 = urem i32 %17, 64
  store i32 %18, ptr %12, align 4, !tbaa !8
  call void @llvm.lifetime.start.p0(i64 4, ptr %13) #9
  %19 = load i32, ptr %12, align 4, !tbaa !8
  %20 = icmp eq i32 %19, 0
  br i1 %20, label %21, label %27

21:                                               ; preds = %5
  %22 = load i32, ptr %11, align 4, !tbaa !8
  %23 = icmp ugt i32 %22, 0
  br i1 %23, label %24, label %27

24:                                               ; preds = %21
  %25 = load i32, ptr %11, align 4, !tbaa !8
  %26 = sub i32 %25, 1
  store i32 %26, ptr %13, align 4, !tbaa !8
  br label %29

27:                                               ; preds = %21, %5
  %28 = load i32, ptr %11, align 4, !tbaa !8
  store i32 %28, ptr %13, align 4, !tbaa !8
  br label %29

29:                                               ; preds = %27, %24
  call void @llvm.lifetime.start.p0(i64 4, ptr %14) #9
  %30 = load i32, ptr %12, align 4, !tbaa !8
  %31 = icmp eq i32 %30, 0
  br i1 %31, label %32, label %36

32:                                               ; preds = %29
  %33 = load i32, ptr %11, align 4, !tbaa !8
  %34 = icmp ugt i32 %33, 0
  br i1 %34, label %35, label %36

35:                                               ; preds = %32
  store i32 64, ptr %14, align 4, !tbaa !8
  br label %38

36:                                               ; preds = %32, %29
  %37 = load i32, ptr %12, align 4, !tbaa !8
  store i32 %37, ptr %14, align 4, !tbaa !8
  br label %38

38:                                               ; preds = %36, %35
  %39 = load i32, ptr %6, align 4, !tbaa !8
  %40 = load ptr, ptr %7, align 8, !tbaa !3
  %41 = load ptr, ptr %8, align 8, !tbaa !3
  %42 = load i64, ptr %9, align 8, !tbaa !24
  %43 = load ptr, ptr %10, align 8, !tbaa !23
  %44 = load i32, ptr %13, align 4, !tbaa !8
  call void @python_hashlib_Hacl_Hash_Blake2s_update_multi(i32 noundef %39, ptr noundef %40, ptr noundef %41, i64 noundef %42, ptr noundef %43, i32 noundef %44)
  %45 = load i32, ptr %6, align 4, !tbaa !8
  %46 = load ptr, ptr %7, align 8, !tbaa !3
  %47 = load ptr, ptr %8, align 8, !tbaa !3
  %48 = load i64, ptr %9, align 8, !tbaa !24
  %49 = load i32, ptr %14, align 4, !tbaa !8
  %50 = load ptr, ptr %10, align 8, !tbaa !23
  call void @python_hashlib_Hacl_Hash_Blake2s_update_last(i32 noundef %45, ptr noundef %46, ptr noundef %47, i1 noundef zeroext false, i64 noundef %48, i32 noundef %49, ptr noundef %50)
  call void @llvm.lifetime.end.p0(i64 4, ptr %14) #9
  call void @llvm.lifetime.end.p0(i64 4, ptr %13) #9
  call void @llvm.lifetime.end.p0(i64 4, ptr %12) #9
  call void @llvm.lifetime.end.p0(i64 4, ptr %11) #9
  ret void
}

; Function Attrs: nounwind uwtable
define internal void @update_key(ptr noundef %0, ptr noundef %1, i32 noundef %2, ptr noundef %3, i32 noundef %4) #0 {
  %6 = alloca ptr, align 8
  %7 = alloca ptr, align 8
  %8 = alloca i32, align 4
  %9 = alloca ptr, align 8
  %10 = alloca i32, align 4
  %11 = alloca i64, align 8
  %12 = alloca [64 x i8], align 16
  store ptr %0, ptr %6, align 8, !tbaa !3
  store ptr %1, ptr %7, align 8, !tbaa !3
  store i32 %2, ptr %8, align 4, !tbaa !8
  store ptr %3, ptr %9, align 8, !tbaa !23
  store i32 %4, ptr %10, align 4, !tbaa !8
  call void @llvm.lifetime.start.p0(i64 8, ptr %11) #9
  store i64 64, ptr %11, align 8, !tbaa !24
  call void @llvm.lifetime.start.p0(i64 64, ptr %12) #9
  call void @llvm.memset.p0.i64(ptr align 16 %12, i8 0, i64 64, i1 false)
  %13 = getelementptr inbounds [64 x i8], ptr %12, i64 0, i64 0
  %14 = load ptr, ptr %9, align 8, !tbaa !23
  %15 = load i32, ptr %8, align 4, !tbaa !8
  %16 = zext i32 %15 to i64
  %17 = mul i64 %16, 1
  call void @llvm.memcpy.p0.p0.i64(ptr align 16 %13, ptr align 1 %14, i64 %17, i1 false)
  %18 = load i32, ptr %10, align 4, !tbaa !8
  %19 = icmp eq i32 %18, 0
  br i1 %19, label %20, label %25

20:                                               ; preds = %5
  %21 = load ptr, ptr %6, align 8, !tbaa !3
  %22 = load ptr, ptr %7, align 8, !tbaa !3
  %23 = load i64, ptr %11, align 8, !tbaa !24
  %24 = getelementptr inbounds [64 x i8], ptr %12, i64 0, i64 0
  call void @update_block(ptr noundef %21, ptr noundef %22, i1 noundef zeroext true, i1 noundef zeroext false, i64 noundef %23, ptr noundef %24)
  br label %30

25:                                               ; preds = %5
  %26 = load ptr, ptr %6, align 8, !tbaa !3
  %27 = load ptr, ptr %7, align 8, !tbaa !3
  %28 = load i64, ptr %11, align 8, !tbaa !24
  %29 = getelementptr inbounds [64 x i8], ptr %12, i64 0, i64 0
  call void @update_block(ptr noundef %26, ptr noundef %27, i1 noundef zeroext false, i1 noundef zeroext false, i64 noundef %28, ptr noundef %29)
  br label %30

30:                                               ; preds = %25, %20
  %31 = getelementptr inbounds [64 x i8], ptr %12, i64 0, i64 0
  call void @Lib_Memzero0_memzero0(ptr noundef %31, i64 noundef 64)
  call void @llvm.lifetime.end.p0(i64 64, ptr %12) #9
  call void @llvm.lifetime.end.p0(i64 8, ptr %11) #9
  ret void
}

; Function Attrs: inlinehint nounwind uwtable
define internal void @update(ptr noundef %0, ptr noundef %1, i32 noundef %2, ptr noundef %3, i32 noundef %4, ptr noundef %5) #3 {
  %7 = alloca ptr, align 8
  %8 = alloca ptr, align 8
  %9 = alloca i32, align 4
  %10 = alloca ptr, align 8
  %11 = alloca i32, align 4
  %12 = alloca ptr, align 8
  %13 = alloca i64, align 8
  %14 = alloca i32, align 4
  store ptr %0, ptr %7, align 8, !tbaa !3
  store ptr %1, ptr %8, align 8, !tbaa !3
  store i32 %2, ptr %9, align 4, !tbaa !8
  store ptr %3, ptr %10, align 8, !tbaa !23
  store i32 %4, ptr %11, align 4, !tbaa !8
  store ptr %5, ptr %12, align 8, !tbaa !23
  call void @llvm.lifetime.start.p0(i64 8, ptr %13) #9
  store i64 64, ptr %13, align 8, !tbaa !24
  %15 = load i32, ptr %9, align 4, !tbaa !8
  %16 = icmp ugt i32 %15, 0
  br i1 %16, label %17, label %32

17:                                               ; preds = %6
  %18 = load ptr, ptr %7, align 8, !tbaa !3
  %19 = load ptr, ptr %8, align 8, !tbaa !3
  %20 = load i32, ptr %9, align 4, !tbaa !8
  %21 = load ptr, ptr %10, align 8, !tbaa !23
  %22 = load i32, ptr %11, align 4, !tbaa !8
  call void @update_key(ptr noundef %18, ptr noundef %19, i32 noundef %20, ptr noundef %21, i32 noundef %22)
  %23 = load i32, ptr %11, align 4, !tbaa !8
  %24 = icmp eq i32 %23, 0
  br i1 %24, label %31, label %25

25:                                               ; preds = %17
  %26 = load i32, ptr %11, align 4, !tbaa !8
  %27 = load ptr, ptr %7, align 8, !tbaa !3
  %28 = load ptr, ptr %8, align 8, !tbaa !3
  %29 = load i64, ptr %13, align 8, !tbaa !24
  %30 = load ptr, ptr %12, align 8, !tbaa !23
  call void @update_blocks(i32 noundef %26, ptr noundef %27, ptr noundef %28, i64 noundef %29, ptr noundef %30)
  store i32 1, ptr %14, align 4
  br label %37

31:                                               ; preds = %17
  store i32 1, ptr %14, align 4
  br label %37

32:                                               ; preds = %6
  %33 = load i32, ptr %11, align 4, !tbaa !8
  %34 = load ptr, ptr %7, align 8, !tbaa !3
  %35 = load ptr, ptr %8, align 8, !tbaa !3
  %36 = load ptr, ptr %12, align 8, !tbaa !23
  call void @update_blocks(i32 noundef %33, ptr noundef %34, ptr noundef %35, i64 noundef 0, ptr noundef %36)
  store i32 0, ptr %14, align 4
  br label %37

37:                                               ; preds = %32, %31, %25
  call void @llvm.lifetime.end.p0(i64 8, ptr %13) #9
  %38 = load i32, ptr %14, align 4
  switch i32 %38, label %40 [
    i32 0, label %39
    i32 1, label %39
  ]

39:                                               ; preds = %37, %37
  ret void

40:                                               ; preds = %37
  unreachable
}