; Function Attrs: inlinehint nounwind uwtable
define internal fastcc void @update(ptr noundef nonnull captures(none) initializes((0, 64)) %0, ptr noundef nonnull captures(none) %1, i32 noundef %2, ptr noundef readonly captures(none) %3, i32 noundef %4, ptr noundef readonly captures(none) %5) unnamed_addr #17 {
  %7 = alloca [64 x i8], align 16
  %8 = alloca [64 x i8], align 16
  %9 = alloca [64 x i8], align 16
  %.not = icmp eq i32 %2, 0
  br i1 %.not, label %36, label %10

10:                                               ; preds = %6
  call void @llvm.lifetime.start.p0(i64 64, ptr nonnull %9) #20
  %11 = zext i32 %2 to i64
  %12 = icmp ugt i32 %2, 63
  %13 = sub nsw i64 64, %11
  %14 = select i1 %12, i64 0, i64 %13
  %15 = getelementptr i8, ptr %9, i64 %11
  call void @llvm.memset.p0.i64(ptr align 1 %15, i8 0, i64 %14, i1 false)
  call void @llvm.memcpy.p0.p0.i64(ptr noundef nonnull align 16 dereferenceable(1) %9, ptr noundef nonnull readonly align 1 dereferenceable(1) %3, i64 %11, i1 false)
  %16 = icmp eq i32 %4, 0
  call fastcc void @update_block(ptr noundef nonnull %0, ptr noundef nonnull %1, i1 noundef zeroext %16, i1 noundef zeroext false, i64 noundef 64, ptr noundef nonnull %9)
  call void @Lib_Memzero0_memzero0(ptr noundef nonnull %9, i64 noundef 64) #20
  call void @llvm.lifetime.end.p0(i64 64, ptr nonnull %9) #20
  br i1 %16, label %53, label %17

17:                                               ; preds = %10
  %18 = lshr i32 %4, 6
  %19 = and i32 %4, 63
  %20 = icmp eq i32 %19, 0
  %21 = icmp ugt i32 %4, 63
  %or.cond.i = and i1 %21, %20
  %22 = sext i1 %or.cond.i to i32
  %.023.i = add nsw i32 %18, %22
  %.not.i.i = icmp eq i32 %.023.i, 0
  br i1 %.not.i.i, label %update_blocks.exit, label %.lr.ph.preheader.i.i

.lr.ph.preheader.i.i:                             ; preds = %17
  %wide.trip.count.i.i = zext i32 %.023.i to i64
  br label %.lr.ph.i.i

.lr.ph.i.i:                                       ; preds = %.lr.ph.i.i, %.lr.ph.preheader.i.i
  %indvars.iv.i.i = phi i64 [ 0, %.lr.ph.preheader.i.i ], [ %indvars.iv.next.i.i, %.lr.ph.i.i ]
  %indvars.iv.next.i.i = add nuw nsw i64 %indvars.iv.i.i, 1
  %23 = shl i64 %indvars.iv.next.i.i, 6
  %24 = and i64 %23, 4294967232
  %25 = add nuw nsw i64 %24, 64
  %26 = shl i64 %indvars.iv.i.i, 6
  %27 = and i64 %26, 4294967232
  %28 = getelementptr i8, ptr %5, i64 %27
  call fastcc void @update_block(ptr noundef nonnull %0, ptr noundef nonnull %1, i1 noundef zeroext false, i1 noundef zeroext false, i64 noundef %25, ptr noundef readonly %28)
  %exitcond.not.i.i = icmp eq i64 %indvars.iv.next.i.i, %wide.trip.count.i.i
  br i1 %exitcond.not.i.i, label %update_blocks.exit, label %.lr.ph.i.i, !llvm.loop !7

update_blocks.exit:                               ; preds = %.lr.ph.i.i, %17
  call void @llvm.lifetime.start.p0(i64 64, ptr nonnull %8) #20
  call void @llvm.memset.p0.i64(ptr noundef nonnull align 16 dereferenceable(64) %8, i8 0, i64 64, i1 false)
  %29 = zext i32 %4 to i64
  %30 = getelementptr i8, ptr %5, i64 %29
  %31 = zext nneg i32 %19 to i64
  %32 = select i1 %or.cond.i, i64 64, i64 %31
  %33 = sub nsw i64 0, %32
  %34 = getelementptr i8, ptr %30, i64 %33
  call void @llvm.memcpy.p0.p0.i64(ptr nonnull align 16 %8, ptr readonly align 1 %34, i64 %32, i1 false)
  %35 = add nuw nsw i64 %29, 64
  call fastcc void @update_block(ptr noundef nonnull %0, ptr noundef nonnull %1, i1 noundef zeroext true, i1 noundef zeroext false, i64 noundef %35, ptr noundef nonnull %8)
  call void @Lib_Memzero0_memzero0(ptr noundef nonnull %8, i64 noundef 64) #20
  call void @llvm.lifetime.end.p0(i64 64, ptr nonnull %8) #20
  br label %53

36:                                               ; preds = %6
  %37 = lshr i32 %4, 6
  %38 = and i32 %4, 63
  %39 = icmp eq i32 %38, 0
  %40 = icmp ugt i32 %4, 63
  %or.cond.i16 = and i1 %40, %39
  %41 = sext i1 %or.cond.i16 to i32
  %.023.i17 = add nsw i32 %37, %41
  %.not.i.i18 = icmp eq i32 %.023.i17, 0
  br i1 %.not.i.i18, label %update_blocks.exit25, label %.lr.ph.preheader.i.i19

.lr.ph.preheader.i.i19:                           ; preds = %36
  %wide.trip.count.i.i20 = zext i32 %.023.i17 to i64
  br label %.lr.ph.i.i21

.lr.ph.i.i21:                                     ; preds = %.lr.ph.i.i21, %.lr.ph.preheader.i.i19
  %indvars.iv.i.i22 = phi i64 [ 0, %.lr.ph.preheader.i.i19 ], [ %indvars.iv.next.i.i23, %.lr.ph.i.i21 ]
  %indvars.iv.next.i.i23 = add nuw nsw i64 %indvars.iv.i.i22, 1
  %42 = shl i64 %indvars.iv.next.i.i23, 6
  %43 = and i64 %42, 4294967232
  %44 = shl i64 %indvars.iv.i.i22, 6
  %45 = and i64 %44, 4294967232
  %46 = getelementptr i8, ptr %5, i64 %45
  tail call fastcc void @update_block(ptr noundef nonnull %0, ptr noundef nonnull %1, i1 noundef zeroext false, i1 noundef zeroext false, i64 noundef %43, ptr noundef readonly %46)
  %exitcond.not.i.i24 = icmp eq i64 %indvars.iv.next.i.i23, %wide.trip.count.i.i20
  br i1 %exitcond.not.i.i24, label %update_blocks.exit25, label %.lr.ph.i.i21, !llvm.loop !7

update_blocks.exit25:                             ; preds = %.lr.ph.i.i21, %36
  call void @llvm.lifetime.start.p0(i64 64, ptr nonnull %7) #20
  call void @llvm.memset.p0.i64(ptr noundef nonnull align 16 dereferenceable(64) %7, i8 0, i64 64, i1 false)
  %47 = zext i32 %4 to i64
  %48 = getelementptr i8, ptr %5, i64 %47
  %49 = zext nneg i32 %38 to i64
  %50 = select i1 %or.cond.i16, i64 64, i64 %49
  %51 = sub nsw i64 0, %50
  %52 = getelementptr i8, ptr %48, i64 %51
  call void @llvm.memcpy.p0.p0.i64(ptr nonnull align 16 %7, ptr readonly align 1 %52, i64 %50, i1 false)
  call fastcc void @update_block(ptr noundef nonnull %0, ptr noundef nonnull %1, i1 noundef zeroext true, i1 noundef zeroext false, i64 noundef %47, ptr noundef nonnull %7)
  call void @Lib_Memzero0_memzero0(ptr noundef nonnull %7, i64 noundef 64) #20
  call void @llvm.lifetime.end.p0(i64 64, ptr nonnull %7) #20
  br label %53

53:                                               ; preds = %10, %update_blocks.exit25, %update_blocks.exit
  ret void
}